; Function Attrs: nounwind uwtable
define internal range(i32 0, 2) i32 @test_PACKET_null_init() #0 {
  %1 = tail call i32 @test_size_t_eq(ptr noundef nonnull @.str.25, i32 noundef 324, ptr noundef nonnull @.str.27, ptr noundef nonnull @.str.32, i64 noundef 0, i64 noundef 0) #6
  %.not = icmp eq i32 %1, 0
  br i1 %.not, label %3, label %PACKET_forward.exit

PACKET_forward.exit:                              ; preds = %0
  %2 = tail call i32 @test_false(ptr noundef nonnull @.str.25, i32 noundef 325, ptr noundef nonnull @.str.33, i32 noundef 0) #6
  %.not1 = icmp ne i32 %2, 0
  %spec.select = zext i1 %.not1 to i32
  br label %3

3:                                                ; preds = %PACKET_forward.exit, %0
  %.0 = phi i32 [ 0, %0 ], [ %spec.select, %PACKET_forward.exit ]
  ret i32 %.0
}